target datalayout = "e-m:e-p270:32:32-p271:32:32-p272:64:64-i64:64-i128:128-f80:128-n8:16:32:64-S128"
target triple = "x86_64-pc-linux-gnu"

@root = internal global ptr null, align 8
@stderr = external global ptr, align 8
@defval = internal global ptr @.str.4, align 8
@.str.65 = private unnamed_addr constant [6 x i8] c"edge:\00", align 1
@.str.66 = private unnamed_addr constant [81 x i8] c"Warning: global edge attribute %s in graph %s does not begin with the prefix %s\0A\00", align 1

; Function Attrs: inlinehint nounwind uwtable
define internal zeroext i1 @startswith(ptr noundef %0, ptr noundef %1) #5 {
  %3 = alloca ptr, align 8
  %4 = alloca ptr, align 8
  store ptr %0, ptr %3, align 8, !tbaa !30
  store ptr %1, ptr %4, align 8, !tbaa !30
  %5 = load ptr, ptr %3, align 8, !tbaa !30
  %6 = load ptr, ptr %4, align 8, !tbaa !30
  %7 = load ptr, ptr %4, align 8, !tbaa !30
  %8 = call i64 @strlen(ptr noundef %7) #16
  %9 = call i32 @strncmp(ptr noundef %5, ptr noundef %6, i64 noundef %8) #16
  %10 = icmp eq i32 %9, 0
  ret i1 %10
}

; Function Attrs: nounwind uwtable
define internal void @setGlobalEdgeAttr(ptr noundef %0, ptr noundef %1, ptr noundef %2) #0 {
  %4 = alloca ptr, align 8
  %5 = alloca ptr, align 8
  %6 = alloca ptr, align 8
  store ptr %0, ptr %4, align 8, !tbaa !13
  store ptr %1, ptr %5, align 8, !tbaa !30
  store ptr %2, ptr %6, align 8, !tbaa !30
  %7 = load ptr, ptr %5, align 8, !tbaa !30
  %8 = call zeroext i1 @startswith(ptr noundef %7, ptr noundef @.str.65)
  br i1 %8, label %15, label %9

9:                                                ; preds = %3
  %10 = load ptr, ptr @stderr, align 8, !tbaa !4
  %11 = load ptr, ptr %5, align 8, !tbaa !30
  %12 = load ptr, ptr %4, align 8, !tbaa !13
  %13 = call ptr @agnameof(ptr noundef %12)
  %14 = call i32 (ptr, ptr, ...) @fprintf(ptr noundef %10, ptr noundef @.str.66, ptr noundef %11, ptr noundef %13, ptr noundef @.str.65) #14
  br label %18

15:                                               ; preds = %3
  %16 = load ptr, ptr %5, align 8, !tbaa !30
  %17 = getelementptr inbounds nuw i8, ptr %16, i64 5
  store ptr %17, ptr %5, align 8, !tbaa !30
  br label %18

18:                                               ; preds = %15, %9
  %19 = load ptr, ptr %4, align 8, !tbaa !13
  %20 = load ptr, ptr @root, align 8, !tbaa !13
  %21 = icmp ne ptr %19, %20
  br i1 %21, label %22, label %32

22:                                               ; preds = %18
  %23 = load ptr, ptr @root, align 8, !tbaa !13
  %24 = load ptr, ptr %5, align 8, !tbaa !30
  %25 = call ptr @agattr(ptr noundef %23, i32 noundef 2, ptr noundef %24, ptr noundef null)
  %26 = icmp ne ptr %25, null
  br i1 %26, label %32, label %27

27:                                               ; preds = %22
  %28 = load ptr, ptr @root, align 8, !tbaa !13
  %29 = load ptr, ptr %5, align 8, !tbaa !30
  %30 = load ptr, ptr @defval, align 8, !tbaa !30
  %31 = call ptr @agattr(ptr noundef %28, i32 noundef 2, ptr noundef %29, ptr noundef %30)
  br label %32

32:                                               ; preds = %27, %22, %18
  %33 = load ptr, ptr %4, align 8, !tbaa !13
  %34 = load ptr, ptr %5, align 8, !tbaa !30
  %35 = load ptr, ptr %6, align 8, !tbaa !30
  %36 = call ptr @agattr(ptr noundef %33, i32 noundef 2, ptr noundef %34, ptr noundef %35)
  ret void
}