; Function Attrs: nounwind uwtable
define internal fastcc void @setGlobalEdgeAttr(ptr noundef %0, ptr noundef %1, ptr noundef %2) unnamed_addr #0 {
  %4 = tail call i32 @strncmp(ptr noundef nonnull readonly dereferenceable(1) %1, ptr noundef nonnull dereferenceable(6) @.str.65, i64 noundef 5) #27
  %5 = icmp eq i32 %4, 0
  br i1 %5, label %10, label %6

6:                                                ; preds = %3
  %7 = load ptr, ptr @stderr, align 8, !tbaa !20
  %8 = tail call ptr @agnameof(ptr noundef %0) #24
  %9 = tail call i32 (ptr, ptr, ...) @fprintf(ptr noundef %7, ptr noundef nonnull @.str.66, ptr noundef nonnull %1, ptr noundef %8, ptr noundef nonnull @.str.65) #25
  br label %12

10:                                               ; preds = %3
  %11 = getelementptr inbounds nuw i8, ptr %1, i64 5
  br label %12

12:                                               ; preds = %10, %6
  %.0 = phi ptr [ %11, %10 ], [ %1, %6 ]
  %13 = load ptr, ptr @root, align 8, !tbaa !18
  %.not = icmp eq ptr %0, %13
  br i1 %.not, label %19, label %14

14:                                               ; preds = %12
  %15 = tail call ptr @agattr(ptr noundef %13, i32 noundef 2, ptr noundef nonnull %.0, ptr noundef null) #24
  %.not11 = icmp eq ptr %15, null
  br i1 %.not11, label %16, label %19

16:                                               ; preds = %14
  %17 = load ptr, ptr @root, align 8, !tbaa !18
  %18 = tail call ptr @agattr(ptr noundef %17, i32 noundef 2, ptr noundef nonnull %.0, ptr noundef nonnull @.str.4) #24
  br label %19

19:                                               ; preds = %16, %14, %12
  %20 = tail call ptr @agattr(ptr noundef %0, i32 noundef 2, ptr noundef nonnull %.0, ptr noundef %2) #24
  ret void
}